target datalayout = "e-m:e-p270:32:32-p271:32:32-p272:64:64-i64:64-i128:128-f80:128-n8:16:32:64-S128"
target triple = "x86_64-pc-linux-gnu"

@.str.446 = private unnamed_addr constant [1 x i8] zeroinitializer, align 1
@.str.467 = private unnamed_addr constant [8 x i8] c"%f %sHz\00", align 1
@.str.468 = private unnamed_addr constant [2 x i8] c"f\00", align 1
@.str.469 = private unnamed_addr constant [2 x i8] c"p\00", align 1
@.str.470 = private unnamed_addr constant [2 x i8] c"n\00", align 1
@.str.471 = private unnamed_addr constant [3 x i8] c"\C2\B5\00", align 1
@.str.472 = private unnamed_addr constant [2 x i8] c"m\00", align 1
@.str.473 = private unnamed_addr constant [2 x i8] c"k\00", align 1
@.str.474 = private unnamed_addr constant [2 x i8] c"M\00", align 1
@.str.475 = private unnamed_addr constant [2 x i8] c"G\00", align 1
@.str.476 = private unnamed_addr constant [2 x i8] c"T\00", align 1

; Function Attrs: nounwind null_pointer_is_valid sspstrong uwtable
define internal ptr @get_engr_prefix(ptr noundef %0) #3 {
  %2 = alloca ptr, align 8
  %3 = alloca ptr, align 8
  %4 = alloca i32, align 4
  store ptr %0, ptr %2, align 8
  call void @llvm.lifetime.start.p0(i64 8, ptr %3) #7
  store ptr @.str.446, ptr %3, align 8
  call void @llvm.lifetime.start.p0(i64 4, ptr %4) #7
  %5 = load ptr, ptr %2, align 8
  %6 = load double, ptr %5, align 8
  %7 = call double @llvm.fabs.f64(double %6)
  %8 = call double @log10(double noundef %7) #7
  %9 = fdiv double %8, 3.000000e+00
  %10 = call double @llvm.floor.f64(double %9)
  %11 = fptosi double %10 to i32
  %12 = mul i32 %11, 3
  store i32 %12, ptr %4, align 4
  %13 = load i32, ptr %4, align 4
  switch i32 %13, label %50 [
    i32 -15, label %14
    i32 -12, label %18
    i32 -9, label %22
    i32 -6, label %26
    i32 -3, label %30
    i32 3, label %34
    i32 6, label %38
    i32 9, label %42
    i32 12, label %46
  ]

14:                                               ; preds = %1
  store ptr @.str.468, ptr %3, align 8
  %15 = load ptr, ptr %2, align 8
  %16 = load double, ptr %15, align 8
  %17 = fmul double %16, 1.000000e+15
  store double %17, ptr %15, align 8
  br label %50

18:                                               ; preds = %1
  store ptr @.str.469, ptr %3, align 8
  %19 = load ptr, ptr %2, align 8
  %20 = load double, ptr %19, align 8
  %21 = fmul double %20, 1.000000e+12
  store double %21, ptr %19, align 8
  br label %50

22:                                               ; preds = %1
  store ptr @.str.470, ptr %3, align 8
  %23 = load ptr, ptr %2, align 8
  %24 = load double, ptr %23, align 8
  %25 = fmul double %24, 1.000000e+09
  store double %25, ptr %23, align 8
  br label %50

26:                                               ; preds = %1
  store ptr @.str.471, ptr %3, align 8
  %27 = load ptr, ptr %2, align 8
  %28 = load double, ptr %27, align 8
  %29 = fmul double %28, 1.000000e+06
  store double %29, ptr %27, align 8
  br label %50

30:                                               ; preds = %1
  store ptr @.str.472, ptr %3, align 8
  %31 = load ptr, ptr %2, align 8
  %32 = load double, ptr %31, align 8
  %33 = fmul double %32, 1.000000e+03
  store double %33, ptr %31, align 8
  br label %50

34:                                               ; preds = %1
  store ptr @.str.473, ptr %3, align 8
  %35 = load ptr, ptr %2, align 8
  %36 = load double, ptr %35, align 8
  %37 = fmul double %36, 1.000000e-03
  store double %37, ptr %35, align 8
  br label %50

38:                                               ; preds = %1
  store ptr @.str.474, ptr %3, align 8
  %39 = load ptr, ptr %2, align 8
  %40 = load double, ptr %39, align 8
  %41 = fmul double %40, 0x3EB0C6F7A0B5ED8D
  store double %41, ptr %39, align 8
  br label %50

42:                                               ; preds = %1
  store ptr @.str.475, ptr %3, align 8
  %43 = load ptr, ptr %2, align 8
  %44 = load double, ptr %43, align 8
  %45 = fmul double %44, 1.000000e-09
  store double %45, ptr %43, align 8
  br label %50

46:                                               ; preds = %1
  store ptr @.str.476, ptr %3, align 8
  %47 = load ptr, ptr %2, align 8
  %48 = load double, ptr %47, align 8
  %49 = fmul double %48, 0x3D719799812DEA11
  store double %49, ptr %47, align 8
  br label %50

50:                                               ; preds = %1, %46, %42, %38, %34, %30, %26, %22, %18, %14
  %51 = load ptr, ptr %3, align 8
  call void @llvm.lifetime.end.p0(i64 4, ptr %4) #7
  call void @llvm.lifetime.end.p0(i64 8, ptr %3) #7
  ret ptr %51
}

; Function Attrs: null_pointer_is_valid sspstrong uwtable
define internal void @format_hertz(ptr noundef %0, i64 noundef %1) #0 {
  %3 = alloca ptr, align 8
  %4 = alloca i64, align 8
  %5 = alloca double, align 8
  %6 = alloca ptr, align 8
  store ptr %0, ptr %3, align 8
  store i64 %1, ptr %4, align 8
  call void @llvm.lifetime.start.p0(i64 8, ptr %5) #7
  %7 = load i64, ptr %4, align 8
  %8 = sitofp i64 %7 to double
  %9 = fmul double %8, 0x3EB0000000000000
  store double %9, ptr %5, align 8
  call void @llvm.lifetime.start.p0(i64 8, ptr %6) #7
  %10 = call ptr @get_engr_prefix(ptr noundef %5)
  store ptr %10, ptr %6, align 8
  %11 = load ptr, ptr %3, align 8
  %12 = load ptr, ptr %3, align 8
  %13 = call i64 @llvm.objectsize.i64.p0(ptr %12, i1 false, i1 true, i1 true)
  %14 = load double, ptr %5, align 8
  %15 = load ptr, ptr %6, align 8
  %16 = call i32 (ptr, i64, i32, i64, ptr, ...) @__snprintf_chk(ptr noundef %11, i64 noundef 240, i32 noundef 2, i64 noundef %13, ptr noundef @.str.467, double noundef %14, ptr noundef %15)
  call void @llvm.lifetime.end.p0(i64 8, ptr %6) #7
  call void @llvm.lifetime.end.p0(i64 8, ptr %5) #7
  ret void
}